target datalayout = "e-m:e-p270:32:32-p271:32:32-p272:64:64-i64:64-i128:128-f80:128-n8:16:32:64-S128"
target triple = "x86_64-pc-linux-gnu"

%struct.anon = type { ptr, i32 }

@.str.83 = private unnamed_addr constant [6 x i8] c"%s.%s\00", align 1

; Function Attrs: inlinehint nounwind uwtable
define internal void @list_config_item(ptr noundef %0, ptr noundef %1, ptr noundef %2) #5 {
  %4 = alloca ptr, align 8
  %5 = alloca ptr, align 8
  %6 = alloca ptr, align 8
  store ptr %0, ptr %4, align 8, !tbaa !29
  store ptr %1, ptr %5, align 8, !tbaa !4
  store ptr %2, ptr %6, align 8, !tbaa !4
  %7 = load ptr, ptr %4, align 8, !tbaa !29
  %8 = load ptr, ptr %5, align 8, !tbaa !4
  %9 = load ptr, ptr %6, align 8, !tbaa !4
  %10 = call ptr (ptr, ...) @xstrfmt(ptr noundef @.str.83, ptr noundef %8, ptr noundef %9)
  %11 = call ptr @string_list_append_nodup(ptr noundef %7, ptr noundef %10)
  ret void
}

; Function Attrs: nounwind uwtable
define dso_local void @list_config_advices(ptr noundef %0, ptr noundef %1) #0 {
  %3 = alloca ptr, align 8
  %4 = alloca ptr, align 8
  %5 = alloca i64, align 8
  store ptr %0, ptr %3, align 8, !tbaa !29
  store ptr %1, ptr %4, align 8, !tbaa !4
  call void @llvm.lifetime.start.p0(i64 8, ptr %5) #10
  store i64 0, ptr %5, align 8, !tbaa !24
  br label %6

6:                                                ; preds = %17, %2
  %7 = load i64, ptr %5, align 8, !tbaa !24
  %8 = icmp ult i64 %7, 46
  br i1 %8, label %10, label %9

9:                                                ; preds = %6
  call void @llvm.lifetime.end.p0(i64 8, ptr %5) #10
  br label %20

10:                                               ; preds = %6
  %11 = load ptr, ptr %3, align 8, !tbaa !29
  %12 = load ptr, ptr %4, align 8, !tbaa !4
  %13 = load i64, ptr %5, align 8, !tbaa !24
  %14 = getelementptr inbounds nuw [46 x %struct.anon], ptr @advice_setting, i64 0, i64 %13
  %15 = getelementptr inbounds nuw %struct.anon, ptr %14, i32 0, i32 0
  %16 = load ptr, ptr %15, align 16, !tbaa !23
  call void @list_config_item(ptr noundef %11, ptr noundef %12, ptr noundef %16)
  br label %17

17:                                               ; preds = %10
  %18 = load i64, ptr %5, align 8, !tbaa !24
  %19 = add i64 %18, 1
  store i64 %19, ptr %5, align 8, !tbaa !24
  br label %6, !llvm.loop !31

20:                                               ; preds = %9
  ret void
}