; Function Attrs: nounwind uwtable
define dso_local void @list_config_advices(ptr noundef %0, ptr noundef %1) local_unnamed_addr #0 {
  br label %4

3:                                                ; preds = %4
  ret void

4:                                                ; preds = %2, %4
  %.04 = phi i64 [ 0, %2 ], [ %9, %4 ]
  %5 = getelementptr inbounds nuw [46 x %struct.anon], ptr @advice_setting, i64 0, i64 %.04
  %6 = load ptr, ptr %5, align 16, !tbaa !20
  %7 = tail call ptr (ptr, ...) @xstrfmt(ptr noundef nonnull @.str.83, ptr noundef %1, ptr noundef %6) #12
  %8 = tail call ptr @string_list_append_nodup(ptr noundef %0, ptr noundef %7) #12
  %9 = add nuw nsw i64 %.04, 1
  %exitcond.not = icmp eq i64 %9, 46
  br i1 %exitcond.not, label %3, label %4, !llvm.loop !23
}